target datalayout = "e-m:e-p270:32:32-p271:32:32-p272:64:64-i64:64-i128:128-f80:128-n8:16:32:64-S128"
target triple = "x86_64-pc-linux-gnu"

%struct.redisServer = type { i32, i64, ptr, ptr, ptr, i32, i32, i32, i32, i32, ptr, ptr, ptr, ptr, ptr, i32, i32, i32, i32, i64, i32, i32, i32, i32, ptr, i32, i32, [41 x i8], i32, i64, i32, i32, i32, ptr, ptr, i32, i32, i64, ptr, ptr, ptr, ptr, [2 x i32], i32, i32, i32, i32, i32, i32, [16 x ptr], i32, ptr, ptr, i32, [8 x %struct.connListener], i32, %struct.connListener, ptr, ptr, ptr, ptr, ptr, ptr, ptr, ptr, ptr, ptr, i32, ptr, i32, ptr, [3 x %struct.pause_event], [256 x i8], ptr, i64, i32, i32, [128 x i32], i32, i32, i64, i32, i32, i32, i32, i32, i64, i64, i64, i64, i64, i64, i64, i64, i64, i64, double, i64, i64, i64, i64, i64, i64, i64, i64, i64, i64, i64, i64, i64, i64, i64, i64, i64, i64, i64, i64, i64, double, i64, i64, i64, i64, i64, ptr, i64, i64, i64, %struct.malloc_stats, i64, i64, i64, i64, i64, i64, i64, i64, i64, i64, i64, i64, double, [4 x i64], i64, i64, i64, i64, [128 x i64], [128 x i64], i64, i64, [7 x %struct.anon], i64, i64, i64, i64, i64, i64, [4 x %struct.durationStats], i32, i32, i32, i32, i32, i32, i32, i32, i32, i32, i32, i32, i64, i32, i32, i32, i32, i64, i64, i32, i32, i32, i32, i32, ptr, [3 x %struct.clientBufferLimitsConfig], i32, i32, i32, ptr, i32, i32, i32, i32, i32, i32, ptr, ptr, i32, i32, i64, i64, i64, i64, i64, i32, i32, ptr, i32, i32, i64, i64, i64, i64, i64, i32, i32, i64, i32, i32, i32, i32, i32, i32, i32, i32, ptr, i32, i64, i64, i64, i64, i32, ptr, i32, ptr, i32, i32, i32, i64, i64, i64, i64, i32, i32, i32, i32, i32, i32, ptr, i32, i32, ptr, i32, i32, i32, [2 x i32], i32, %struct.redisOpArray, i32, ptr, i32, ptr, i32, i32, i32, i32, i32, i32, i32, [41 x i8], [41 x i8], i64, i64, i64, i64, i32, i32, ptr, i64, i64, %struct.replDataBuf, i64, i64, i32, i32, i32, i32, i32, i32, i32, i32, i32, i64, ptr, i64, ptr, ptr, ptr, i32, i32, ptr, ptr, i32, i32, i32, i64, i64, i64, i64, ptr, ptr, i32, ptr, i64, i32, i32, i32, i64, i32, i32, i32, i32, ptr, i32, i32, [41 x i8], i64, i32, ptr, i32, i32, i64, i64, i32, i32, i32, i32, i32, i64, [3 x i32], i32, i32, i32, [10 x i32], ptr, ptr, i32, i64, ptr, ptr, i32, i32, i32, i32, i64, i64, i64, i64, i64, i64, i64, i64, i64, i64, i32, i32, i64, i64, i32, i64, i64, i64, i64, i64, ptr, ptr, i32, ptr, i32, i32, i32, i32, i64, i64, ptr, ptr, i32, i32, i32, i32, i32, ptr, ptr, ptr, i32, i32, i32, i32, i32, i32, i32, i64, i32, i32, i64, i32, i32, i32, i32, i32, i32, i32, i64, ptr, ptr, i64, ptr, i32, %struct.aclInfo, i32, i64, i32, i32, i32, %struct.redisTLSContextConfig, ptr, ptr, ptr, ptr, ptr, i64, i32, ptr, i32, i32, i32, i64, i32, ptr }
%struct.connListener = type { [16 x i32], i32, ptr, i32, i32, ptr, ptr }
%struct.pause_event = type { i32, i64 }
%struct.malloc_stats = type { i64, i64, i64, i64, i64, i64, i64, i64, i64, i64, i64 }
%struct.anon = type { i64, i64, [16 x i64], i32 }
%struct.durationStats = type { i64, i64, i64 }
%struct.clientBufferLimitsConfig = type { i64, i64, i64 }
%struct.redisOpArray = type { ptr, i32, i32 }
%struct.replDataBuf = type { ptr, i64, i64, i64, i64 }
%struct.aclInfo = type { i64, i64, i64, i64 }
%struct.redisTLSContextConfig = type { ptr, ptr, ptr, ptr, ptr, ptr, ptr, ptr, ptr, ptr, ptr, ptr, i32, i32, i32, i32 }

@server = external global %struct.redisServer, align 8

; Function Attrs: nounwind uwtable
define dso_local i64 @freeMemoryGetNotCountedMemory() #0 {
  %1 = alloca i64, align 8
  %2 = alloca i64, align 8
  %3 = alloca i64, align 8
  call void @llvm.lifetime.start.p0(i64 8, ptr %1) #11
  store i64 0, ptr %1, align 8, !tbaa !65
  %4 = load i64, ptr getelementptr inbounds nuw (%struct.redisServer, ptr @server, i32 0, i32 292), align 8, !tbaa !73
  %5 = load i64, ptr getelementptr inbounds nuw (%struct.redisServer, ptr @server, i32 0, i32 278), align 8, !tbaa !74
  %6 = icmp sgt i64 %4, %5
  br i1 %6, label %7, label %25

7:                                                ; preds = %0
  call void @llvm.lifetime.start.p0(i64 8, ptr %2) #11
  %8 = load i64, ptr getelementptr inbounds nuw (%struct.redisServer, ptr @server, i32 0, i32 278), align 8, !tbaa !74
  %9 = sdiv i64 %8, 16384
  %10 = add nsw i64 %9, 1
  %11 = mul i64 %10, 64
  store i64 %11, ptr %2, align 8, !tbaa !65
  call void @llvm.lifetime.start.p0(i64 8, ptr %3) #11
  %12 = load i64, ptr getelementptr inbounds nuw (%struct.redisServer, ptr @server, i32 0, i32 278), align 8, !tbaa !74
  %13 = load i64, ptr %2, align 8, !tbaa !65
  %14 = add i64 %12, %13
  store i64 %14, ptr %3, align 8, !tbaa !65
  %15 = load i64, ptr getelementptr inbounds nuw (%struct.redisServer, ptr @server, i32 0, i32 292), align 8, !tbaa !73
  %16 = load i64, ptr %3, align 8, !tbaa !65
  %17 = icmp ugt i64 %15, %16
  br i1 %17, label %18, label %24

18:                                               ; preds = %7
  %19 = load i64, ptr getelementptr inbounds nuw (%struct.redisServer, ptr @server, i32 0, i32 292), align 8, !tbaa !73
  %20 = load i64, ptr %3, align 8, !tbaa !65
  %21 = sub i64 %19, %20
  %22 = load i64, ptr %1, align 8, !tbaa !65
  %23 = add i64 %22, %21
  store i64 %23, ptr %1, align 8, !tbaa !65
  br label %24

24:                                               ; preds = %18, %7
  call void @llvm.lifetime.end.p0(i64 8, ptr %3) #11
  call void @llvm.lifetime.end.p0(i64 8, ptr %2) #11
  br label %25

25:                                               ; preds = %24, %0
  %26 = load i32, ptr getelementptr inbounds nuw (%struct.redisServer, ptr @server, i32 0, i32 193), align 8, !tbaa !75
  %27 = icmp ne i32 %26, 0
  br i1 %27, label %28, label %33

28:                                               ; preds = %25
  %29 = load ptr, ptr getelementptr inbounds nuw (%struct.redisServer, ptr @server, i32 0, i32 206), align 8, !tbaa !76
  %30 = call i64 @sdsAllocSize(ptr noundef %29)
  %31 = load i64, ptr %1, align 8, !tbaa !65
  %32 = add i64 %31, %30
  store i64 %32, ptr %1, align 8, !tbaa !65
  br label %33

33:                                               ; preds = %28, %25
  %34 = load i64, ptr %1, align 8, !tbaa !65
  call void @llvm.lifetime.end.p0(i64 8, ptr %1) #11
  ret i64 %34
}

; Function Attrs: nounwind uwtable
define dso_local i32 @getMaxmemoryState(ptr noundef %0, ptr noundef %1, ptr noundef %2, ptr noundef %3) #0 {
  %5 = alloca i32, align 4
  %6 = alloca ptr, align 8
  %7 = alloca ptr, align 8
  %8 = alloca ptr, align 8
  %9 = alloca ptr, align 8
  %10 = alloca i64, align 8
  %11 = alloca i64, align 8
  %12 = alloca i64, align 8
  %13 = alloca i32, align 4
  %14 = alloca i64, align 8
  store ptr %0, ptr %6, align 8, !tbaa !77
  store ptr %1, ptr %7, align 8, !tbaa !77
  store ptr %2, ptr %8, align 8, !tbaa !77
  store ptr %3, ptr %9, align 8, !tbaa !79
  call void @llvm.lifetime.start.p0(i64 8, ptr %10) #11
  call void @llvm.lifetime.start.p0(i64 8, ptr %11) #11
  call void @llvm.lifetime.start.p0(i64 8, ptr %12) #11
  %15 = call i64 @zmalloc_used_memory()
  store i64 %15, ptr %10, align 8, !tbaa !65
  %16 = load ptr, ptr %6, align 8, !tbaa !77
  %17 = icmp ne ptr %16, null
  br i1 %17, label %18, label %21

18:                                               ; preds = %4
  %19 = load i64, ptr %10, align 8, !tbaa !65
  %20 = load ptr, ptr %6, align 8, !tbaa !77
  store i64 %19, ptr %20, align 8, !tbaa !65
  br label %21

21:                                               ; preds = %18, %4
  %22 = load i64, ptr getelementptr inbounds nuw (%struct.redisServer, ptr @server, i32 0, i32 331), align 8, !tbaa !81
  %23 = icmp ne i64 %22, 0
  br i1 %23, label %30, label %24

24:                                               ; preds = %21
  %25 = load ptr, ptr %9, align 8, !tbaa !79
  %26 = icmp ne ptr %25, null
  br i1 %26, label %27, label %29

27:                                               ; preds = %24
  %28 = load ptr, ptr %9, align 8, !tbaa !79
  store float 0.000000e+00, ptr %28, align 4, !tbaa !82
  br label %29

29:                                               ; preds = %27, %24
  store i32 0, ptr %5, align 4
  store i32 1, ptr %13, align 4
  br label %87

30:                                               ; preds = %21
  %31 = load i64, ptr %10, align 8, !tbaa !65
  %32 = load i64, ptr getelementptr inbounds nuw (%struct.redisServer, ptr @server, i32 0, i32 331), align 8, !tbaa !81
  %33 = icmp ule i64 %31, %32
  br i1 %33, label %34, label %38

34:                                               ; preds = %30
  %35 = load ptr, ptr %9, align 8, !tbaa !79
  %36 = icmp ne ptr %35, null
  br i1 %36, label %38, label %37

37:                                               ; preds = %34
  store i32 0, ptr %5, align 4
  store i32 1, ptr %13, align 4
  br label %87

38:                                               ; preds = %34, %30
  %39 = load i64, ptr %10, align 8, !tbaa !65
  store i64 %39, ptr %11, align 8, !tbaa !65
  call void @llvm.lifetime.start.p0(i64 8, ptr %14) #11
  %40 = call i64 @freeMemoryGetNotCountedMemory()
  store i64 %40, ptr %14, align 8, !tbaa !65
  %41 = load i64, ptr %11, align 8, !tbaa !65
  %42 = load i64, ptr %14, align 8, !tbaa !65
  %43 = icmp ugt i64 %41, %42
  br i1 %43, label %44, label %48

44:                                               ; preds = %38
  %45 = load i64, ptr %11, align 8, !tbaa !65
  %46 = load i64, ptr %14, align 8, !tbaa !65
  %47 = sub i64 %45, %46
  br label %49

48:                                               ; preds = %38
  br label %49

49:                                               ; preds = %48, %44
  %50 = phi i64 [ %47, %44 ], [ 0, %48 ]
  store i64 %50, ptr %11, align 8, !tbaa !65
  %51 = load ptr, ptr %9, align 8, !tbaa !79
  %52 = icmp ne ptr %51, null
  br i1 %52, label %53, label %60

53:                                               ; preds = %49
  %54 = load i64, ptr %11, align 8, !tbaa !65
  %55 = uitofp i64 %54 to float
  %56 = load i64, ptr getelementptr inbounds nuw (%struct.redisServer, ptr @server, i32 0, i32 331), align 8, !tbaa !81
  %57 = uitofp i64 %56 to float
  %58 = fdiv float %55, %57
  %59 = load ptr, ptr %9, align 8, !tbaa !79
  store float %58, ptr %59, align 4, !tbaa !82
  br label %60

60:                                               ; preds = %53, %49
  %61 = load i64, ptr %10, align 8, !tbaa !65
  %62 = load i64, ptr getelementptr inbounds nuw (%struct.redisServer, ptr @server, i32 0, i32 331), align 8, !tbaa !81
  %63 = icmp ule i64 %61, %62
  br i1 %63, label %64, label %65

64:                                               ; preds = %60
  store i32 0, ptr %5, align 4
  store i32 1, ptr %13, align 4
  br label %86

65:                                               ; preds = %60
  %66 = load i64, ptr %11, align 8, !tbaa !65
  %67 = load i64, ptr getelementptr inbounds nuw (%struct.redisServer, ptr @server, i32 0, i32 331), align 8, !tbaa !81
  %68 = icmp ule i64 %66, %67
  br i1 %68, label %69, label %70

69:                                               ; preds = %65
  store i32 0, ptr %5, align 4
  store i32 1, ptr %13, align 4
  br label %86

70:                                               ; preds = %65
  %71 = load i64, ptr %11, align 8, !tbaa !65
  %72 = load i64, ptr getelementptr inbounds nuw (%struct.redisServer, ptr @server, i32 0, i32 331), align 8, !tbaa !81
  %73 = sub i64 %71, %72
  store i64 %73, ptr %12, align 8, !tbaa !65
  %74 = load ptr, ptr %7, align 8, !tbaa !77
  %75 = icmp ne ptr %74, null
  br i1 %75, label %76, label %79

76:                                               ; preds = %70
  %77 = load i64, ptr %11, align 8, !tbaa !65
  %78 = load ptr, ptr %7, align 8, !tbaa !77
  store i64 %77, ptr %78, align 8, !tbaa !65
  br label %79

79:                                               ; preds = %76, %70
  %80 = load ptr, ptr %8, align 8, !tbaa !77
  %81 = icmp ne ptr %80, null
  br i1 %81, label %82, label %85

82:                                               ; preds = %79
  %83 = load i64, ptr %12, align 8, !tbaa !65
  %84 = load ptr, ptr %8, align 8, !tbaa !77
  store i64 %83, ptr %84, align 8, !tbaa !65
  br label %85

85:                                               ; preds = %82, %79
  store i32 -1, ptr %5, align 4
  store i32 1, ptr %13, align 4
  br label %86

86:                                               ; preds = %85, %69, %64
  call void @llvm.lifetime.end.p0(i64 8, ptr %14) #11
  br label %87

87:                                               ; preds = %86, %37, %29
  call void @llvm.lifetime.end.p0(i64 8, ptr %12) #11
  call void @llvm.lifetime.end.p0(i64 8, ptr %11) #11
  call void @llvm.lifetime.end.p0(i64 8, ptr %10) #11
  %88 = load i32, ptr %5, align 4
  ret i32 %88
}