; Function Attrs: nounwind uwtable
define dso_local range(i32 -1, 1) i32 @getMaxmemoryState(ptr noundef writeonly captures(address_is_null) %0, ptr noundef writeonly captures(address_is_null) %1, ptr noundef writeonly captures(address_is_null) %2, ptr noundef writeonly captures(address_is_null) %3) local_unnamed_addr #0 {
  %5 = tail call i64 @zmalloc_used_memory() #15
  %.not = icmp eq ptr %0, null
  br i1 %.not, label %7, label %6

6:                                                ; preds = %4
  store i64 %5, ptr %0, align 8, !tbaa !60
  br label %7

7:                                                ; preds = %6, %4
  %8 = load i64, ptr getelementptr inbounds nuw (i8, ptr @server, i64 7520), align 8, !tbaa !69
  %.not33 = icmp eq i64 %8, 0
  br i1 %.not33, label %9, label %11

9:                                                ; preds = %7
  %.not34 = icmp eq ptr %3, null
  br i1 %.not34, label %40, label %10

10:                                               ; preds = %9
  store float 0.000000e+00, ptr %3, align 4, !tbaa !70
  br label %40

11:                                               ; preds = %7
  %12 = icmp ugt i64 %5, %8
  %13 = icmp ne ptr %3, null
  %or.cond = or i1 %13, %12
  br i1 %or.cond, label %14, label %40

14:                                               ; preds = %11
  %15 = load i64, ptr getelementptr inbounds nuw (i8, ptr @server, i64 7224), align 8, !tbaa !65
  %16 = load i64, ptr getelementptr inbounds nuw (i8, ptr @server, i64 7112), align 8, !tbaa !66
  %17 = icmp sgt i64 %15, %16
  br i1 %17, label %18, label %23

18:                                               ; preds = %14
  %19 = sdiv i64 %16, 16384
  %20 = shl nsw i64 %19, 6
  %21 = add i64 %16, 64
  %22 = add i64 %21, %20
  %spec.select.i = tail call i64 @llvm.usub.sat.i64(i64 %15, i64 %22)
  br label %23

23:                                               ; preds = %18, %14
  %.0.i = phi i64 [ %spec.select.i, %18 ], [ 0, %14 ]
  %24 = load i32, ptr getelementptr inbounds nuw (i8, ptr @server, i64 6520), align 8, !tbaa !67
  %.not.i = icmp eq i32 %24, 0
  br i1 %.not.i, label %freeMemoryGetNotCountedMemory.exit, label %25

25:                                               ; preds = %23
  %26 = load ptr, ptr getelementptr inbounds nuw (i8, ptr @server, i64 6600), align 8, !tbaa !68
  %27 = tail call i64 @sdsAllocSize(ptr noundef %26) #15
  %28 = add i64 %27, %.0.i
  %.pre.pre = load i64, ptr getelementptr inbounds nuw (i8, ptr @server, i64 7520), align 8, !tbaa !69
  br label %freeMemoryGetNotCountedMemory.exit

freeMemoryGetNotCountedMemory.exit:               ; preds = %23, %25
  %.pre = phi i64 [ %.pre.pre, %25 ], [ %8, %23 ]
  %.2.i = phi i64 [ %28, %25 ], [ %.0.i, %23 ]
  %29 = tail call i64 @llvm.usub.sat.i64(i64 %5, i64 %.2.i)
  br i1 %13, label %30, label %34

30:                                               ; preds = %freeMemoryGetNotCountedMemory.exit
  %31 = uitofp i64 %29 to float
  %32 = uitofp i64 %.pre to float
  %33 = fdiv float %31, %32
  store float %33, ptr %3, align 4, !tbaa !70
  br label %34

34:                                               ; preds = %30, %freeMemoryGetNotCountedMemory.exit
  %.not35 = icmp ugt i64 %5, %.pre
  %.not36 = icmp ugt i64 %29, %.pre
  %or.cond39 = select i1 %.not35, i1 %.not36, i1 false
  br i1 %or.cond39, label %35, label %40

35:                                               ; preds = %34
  %36 = sub nuw i64 %29, %.pre
  %.not37 = icmp eq ptr %1, null
  br i1 %.not37, label %38, label %37

37:                                               ; preds = %35
  store i64 %29, ptr %1, align 8, !tbaa !60
  br label %38

38:                                               ; preds = %37, %35
  %.not38 = icmp eq ptr %2, null
  br i1 %.not38, label %40, label %39

39:                                               ; preds = %38
  store i64 %36, ptr %2, align 8, !tbaa !60
  br label %40

40:                                               ; preds = %34, %39, %38, %11, %9, %10
  %.0 = phi i32 [ 0, %10 ], [ 0, %9 ], [ 0, %11 ], [ 0, %34 ], [ -1, %39 ], [ -1, %38 ]
  ret i32 %.0
}